target datalayout = "e-m:e-p270:32:32-p271:32:32-p272:64:64-i64:64-i128:128-f80:128-n8:16:32:64-S128"
target triple = "x86_64-pc-linux-gnu"

%struct.RangeBound = type { i64, i8, i8, i8 }
%struct.FunctionCallInfoBaseData = type { ptr, ptr, ptr, i32, i8, i16, [0 x %struct.NullableDatum] }
%struct.NullableDatum = type { i64, i8 }
%struct.FmgrInfo = type { ptr, i32, i16, i8, i8, i8, ptr, ptr, ptr }
%struct.TypeCacheEntry = type { i32, i32, i16, i8, i8, i8, i8, i32, i32, i32, i32, i32, i32, i32, i32, i32, i32, i32, i32, i32, i32, %struct.FmgrInfo, %struct.FmgrInfo, %struct.FmgrInfo, %struct.FmgrInfo, ptr, i64, ptr, i32, i32, %struct.FmgrInfo, %struct.FmgrInfo, %struct.FmgrInfo, ptr, i32, i32, ptr, i32, ptr, ptr }
%struct.RangeType = type { i32, i32 }

@.str.1 = private unnamed_addr constant [13 x i8] c"rangetypes.c\00", align 1
@.str.12 = private unnamed_addr constant [28 x i8] c"type %u is not a range type\00", align 1
@__func__.range_get_typcache = private unnamed_addr constant [19 x i8] c"range_get_typcache\00", align 1

; Function Attrs: inlinehint nounwind uwtable
define internal i32 @DatumGetInt32(i64 noundef %0) #2 {
  %2 = alloca i64, align 8
  store i64 %0, ptr %2, align 8
  %3 = load i64, ptr %2, align 8
  %4 = trunc i64 %3 to i32
  ret i32 %4
}

; Function Attrs: inlinehint nounwind uwtable
define internal ptr @DatumGetPointer(i64 noundef %0) #2 {
  %2 = alloca i64, align 8
  store i64 %0, ptr %2, align 8
  %3 = load i64, ptr %2, align 8
  %4 = inttoptr i64 %3 to ptr
  ret ptr %4
}

; Function Attrs: inlinehint nounwind uwtable
define internal i64 @BoolGetDatum(i1 noundef zeroext %0) #2 {
  %2 = alloca i8, align 1
  %3 = zext i1 %0 to i8
  store i8 %3, ptr %2, align 1
  %4 = load i8, ptr %2, align 1, !range !7, !noundef !8
  %5 = trunc i8 %4 to i1
  %6 = select i1 %5, i32 1, i32 0
  %7 = sext i32 %6 to i64
  ret i64 %7
}

; Function Attrs: nounwind uwtable
define dso_local zeroext i1 @range_contains_elem_internal(ptr noundef %0, ptr noundef %1, i64 noundef %2) #0 {
  %4 = alloca i1, align 1
  %5 = alloca ptr, align 8
  %6 = alloca ptr, align 8
  %7 = alloca i64, align 8
  %8 = alloca %struct.RangeBound, align 8
  %9 = alloca %struct.RangeBound, align 8
  %10 = alloca i8, align 1
  %11 = alloca i32, align 4
  %12 = alloca i32, align 4
  store ptr %0, ptr %5, align 8
  store ptr %1, ptr %6, align 8
  store i64 %2, ptr %7, align 8
  call void @llvm.lifetime.start.p0(i64 16, ptr %8) #10
  call void @llvm.lifetime.start.p0(i64 16, ptr %9) #10
  call void @llvm.lifetime.start.p0(i64 1, ptr %10) #10
  call void @llvm.lifetime.start.p0(i64 4, ptr %11) #10
  %13 = load ptr, ptr %5, align 8
  %14 = load ptr, ptr %6, align 8
  call void @range_deserialize(ptr noundef %13, ptr noundef %14, ptr noundef %8, ptr noundef %9, ptr noundef %10)
  %15 = load i8, ptr %10, align 1, !range !7, !noundef !8
  %16 = trunc i8 %15 to i1
  br i1 %16, label %17, label %18

17:                                               ; preds = %3
  store i1 false, ptr %4, align 1
  store i32 1, ptr %12, align 4
  br label %73

18:                                               ; preds = %3
  %19 = getelementptr inbounds nuw %struct.RangeBound, ptr %8, i32 0, i32 1
  %20 = load i8, ptr %19, align 8, !range !7, !noundef !8
  %21 = trunc i8 %20 to i1
  br i1 %21, label %45, label %22

22:                                               ; preds = %18
  %23 = load ptr, ptr %5, align 8
  %24 = getelementptr inbounds nuw %struct.TypeCacheEntry, ptr %23, i32 0, i32 30
  %25 = load ptr, ptr %5, align 8
  %26 = getelementptr inbounds nuw %struct.TypeCacheEntry, ptr %25, i32 0, i32 29
  %27 = load i32, ptr %26, align 4
  %28 = getelementptr inbounds nuw %struct.RangeBound, ptr %8, i32 0, i32 0
  %29 = load i64, ptr %28, align 8
  %30 = load i64, ptr %7, align 8
  %31 = call i64 @FunctionCall2Coll(ptr noundef %24, i32 noundef %27, i64 noundef %29, i64 noundef %30)
  %32 = call i32 @DatumGetInt32(i64 noundef %31)
  store i32 %32, ptr %11, align 4
  %33 = load i32, ptr %11, align 4
  %34 = icmp sgt i32 %33, 0
  br i1 %34, label %35, label %36

35:                                               ; preds = %22
  store i1 false, ptr %4, align 1
  store i32 1, ptr %12, align 4
  br label %73

36:                                               ; preds = %22
  %37 = load i32, ptr %11, align 4
  %38 = icmp eq i32 %37, 0
  br i1 %38, label %39, label %44

39:                                               ; preds = %36
  %40 = getelementptr inbounds nuw %struct.RangeBound, ptr %8, i32 0, i32 2
  %41 = load i8, ptr %40, align 1, !range !7, !noundef !8
  %42 = trunc i8 %41 to i1
  br i1 %42, label %44, label %43

43:                                               ; preds = %39
  store i1 false, ptr %4, align 1
  store i32 1, ptr %12, align 4
  br label %73

44:                                               ; preds = %39, %36
  br label %45

45:                                               ; preds = %44, %18
  %46 = getelementptr inbounds nuw %struct.RangeBound, ptr %9, i32 0, i32 1
  %47 = load i8, ptr %46, align 8, !range !7, !noundef !8
  %48 = trunc i8 %47 to i1
  br i1 %48, label %72, label %49

49:                                               ; preds = %45
  %50 = load ptr, ptr %5, align 8
  %51 = getelementptr inbounds nuw %struct.TypeCacheEntry, ptr %50, i32 0, i32 30
  %52 = load ptr, ptr %5, align 8
  %53 = getelementptr inbounds nuw %struct.TypeCacheEntry, ptr %52, i32 0, i32 29
  %54 = load i32, ptr %53, align 4
  %55 = getelementptr inbounds nuw %struct.RangeBound, ptr %9, i32 0, i32 0
  %56 = load i64, ptr %55, align 8
  %57 = load i64, ptr %7, align 8
  %58 = call i64 @FunctionCall2Coll(ptr noundef %51, i32 noundef %54, i64 noundef %56, i64 noundef %57)
  %59 = call i32 @DatumGetInt32(i64 noundef %58)
  store i32 %59, ptr %11, align 4
  %60 = load i32, ptr %11, align 4
  %61 = icmp slt i32 %60, 0
  br i1 %61, label %62, label %63

62:                                               ; preds = %49
  store i1 false, ptr %4, align 1
  store i32 1, ptr %12, align 4
  br label %73

63:                                               ; preds = %49
  %64 = load i32, ptr %11, align 4
  %65 = icmp eq i32 %64, 0
  br i1 %65, label %66, label %71

66:                                               ; preds = %63
  %67 = getelementptr inbounds nuw %struct.RangeBound, ptr %9, i32 0, i32 2
  %68 = load i8, ptr %67, align 1, !range !7, !noundef !8
  %69 = trunc i8 %68 to i1
  br i1 %69, label %71, label %70

70:                                               ; preds = %66
  store i1 false, ptr %4, align 1
  store i32 1, ptr %12, align 4
  br label %73

71:                                               ; preds = %66, %63
  br label %72

72:                                               ; preds = %71, %45
  store i1 true, ptr %4, align 1
  store i32 1, ptr %12, align 4
  br label %73

73:                                               ; preds = %72, %70, %62, %43, %35, %17
  call void @llvm.lifetime.end.p0(i64 4, ptr %11) #10
  call void @llvm.lifetime.end.p0(i64 1, ptr %10) #10
  call void @llvm.lifetime.end.p0(i64 16, ptr %9) #10
  call void @llvm.lifetime.end.p0(i64 16, ptr %8) #10
  %74 = load i1, ptr %4, align 1
  ret i1 %74
}

; Function Attrs: nounwind uwtable
define dso_local ptr @range_get_typcache(ptr noundef %0, i32 noundef %1) #0 {
  %3 = alloca ptr, align 8
  %4 = alloca i32, align 4
  %5 = alloca ptr, align 8
  store ptr %0, ptr %3, align 8
  store i32 %1, ptr %4, align 4
  call void @llvm.lifetime.start.p0(i64 8, ptr %5) #10
  %6 = load ptr, ptr %3, align 8
  %7 = getelementptr inbounds nuw %struct.FunctionCallInfoBaseData, ptr %6, i32 0, i32 0
  %8 = load ptr, ptr %7, align 8
  %9 = getelementptr inbounds nuw %struct.FmgrInfo, ptr %8, i32 0, i32 6
  %10 = load ptr, ptr %9, align 8
  store ptr %10, ptr %5, align 8
  %11 = load ptr, ptr %5, align 8
  %12 = icmp eq ptr %11, null
  br i1 %12, label %19, label %13

13:                                               ; preds = %2
  %14 = load ptr, ptr %5, align 8
  %15 = getelementptr inbounds nuw %struct.TypeCacheEntry, ptr %14, i32 0, i32 0
  %16 = load i32, ptr %15, align 8
  %17 = load i32, ptr %4, align 4
  %18 = icmp ne i32 %16, %17
  br i1 %18, label %19, label %44

19:                                               ; preds = %13, %2
  %20 = load i32, ptr %4, align 4
  %21 = call ptr @lookup_type_cache(i32 noundef %20, i32 noundef 2048)
  store ptr %21, ptr %5, align 8
  %22 = load ptr, ptr %5, align 8
  %23 = getelementptr inbounds nuw %struct.TypeCacheEntry, ptr %22, i32 0, i32 27
  %24 = load ptr, ptr %23, align 8
  %25 = icmp eq ptr %24, null
  br i1 %25, label %26, label %38

26:                                               ; preds = %19
  br label %27

27:                                               ; preds = %26
  br i1 true, label %28, label %30

28:                                               ; preds = %27
  %29 = call zeroext i1 @errstart_cold(i32 noundef 21, ptr noundef null) #11
  br i1 %29, label %32, label %35

30:                                               ; preds = %27
  %31 = call zeroext i1 @errstart(i32 noundef 21, ptr noundef null)
  br i1 %31, label %32, label %35

32:                                               ; preds = %30, %28
  %33 = load i32, ptr %4, align 4
  %34 = call i32 (ptr, ...) @errmsg_internal(ptr noundef @.str.12, i32 noundef %33)
  call void @errfinish(ptr noundef @.str.1, i32 noundef 1712, ptr noundef @__func__.range_get_typcache)
  br label %35

35:                                               ; preds = %32, %30, %28
  unreachable

36:                                               ; No predecessors!
  br label %37

37:                                               ; preds = %36
  br label %38

38:                                               ; preds = %37, %19
  %39 = load ptr, ptr %5, align 8
  %40 = load ptr, ptr %3, align 8
  %41 = getelementptr inbounds nuw %struct.FunctionCallInfoBaseData, ptr %40, i32 0, i32 0
  %42 = load ptr, ptr %41, align 8
  %43 = getelementptr inbounds nuw %struct.FmgrInfo, ptr %42, i32 0, i32 6
  store ptr %39, ptr %43, align 8
  br label %44

44:                                               ; preds = %38, %13
  %45 = load ptr, ptr %5, align 8
  call void @llvm.lifetime.end.p0(i64 8, ptr %5) #10
  ret ptr %45
}

; Function Attrs: inlinehint nounwind uwtable
define internal ptr @DatumGetRangeTypeP(i64 noundef %0) #2 {
  %2 = alloca i64, align 8
  store i64 %0, ptr %2, align 8
  %3 = load i64, ptr %2, align 8
  %4 = call ptr @DatumGetPointer(i64 noundef %3)
  %5 = call ptr @pg_detoast_datum(ptr noundef %4)
  ret ptr %5
}

; Function Attrs: nounwind uwtable
define dso_local i64 @range_contains_elem(ptr noundef %0) #0 {
  %2 = alloca ptr, align 8
  %3 = alloca ptr, align 8
  %4 = alloca i64, align 8
  %5 = alloca ptr, align 8
  store ptr %0, ptr %2, align 8
  call void @llvm.lifetime.start.p0(i64 8, ptr %3) #10
  %6 = load ptr, ptr %2, align 8
  %7 = getelementptr inbounds nuw %struct.FunctionCallInfoBaseData, ptr %6, i32 0, i32 6
  %8 = getelementptr inbounds [0 x %struct.NullableDatum], ptr %7, i64 0, i64 0
  %9 = getelementptr inbounds nuw %struct.NullableDatum, ptr %8, i32 0, i32 0
  %10 = load i64, ptr %9, align 8
  %11 = call ptr @DatumGetRangeTypeP(i64 noundef %10)
  store ptr %11, ptr %3, align 8
  call void @llvm.lifetime.start.p0(i64 8, ptr %4) #10
  %12 = load ptr, ptr %2, align 8
  %13 = getelementptr inbounds nuw %struct.FunctionCallInfoBaseData, ptr %12, i32 0, i32 6
  %14 = getelementptr inbounds [0 x %struct.NullableDatum], ptr %13, i64 0, i64 1
  %15 = getelementptr inbounds nuw %struct.NullableDatum, ptr %14, i32 0, i32 0
  %16 = load i64, ptr %15, align 8
  store i64 %16, ptr %4, align 8
  call void @llvm.lifetime.start.p0(i64 8, ptr %5) #10
  %17 = load ptr, ptr %2, align 8
  %18 = load ptr, ptr %3, align 8
  %19 = getelementptr inbounds nuw %struct.RangeType, ptr %18, i32 0, i32 1
  %20 = load i32, ptr %19, align 4
  %21 = call ptr @range_get_typcache(ptr noundef %17, i32 noundef %20)
  store ptr %21, ptr %5, align 8
  %22 = load ptr, ptr %5, align 8
  %23 = load ptr, ptr %3, align 8
  %24 = load i64, ptr %4, align 8
  %25 = call zeroext i1 @range_contains_elem_internal(ptr noundef %22, ptr noundef %23, i64 noundef %24)
  %26 = call i64 @BoolGetDatum(i1 noundef zeroext %25)
  call void @llvm.lifetime.end.p0(i64 8, ptr %5) #10
  call void @llvm.lifetime.end.p0(i64 8, ptr %4) #10
  call void @llvm.lifetime.end.p0(i64 8, ptr %3) #10
  ret i64 %26
}